; Function Attrs: nounwind sspstrong uwtable
define i64 @rsock_sockopt_new(i32 noundef %0, i32 noundef %1, i32 noundef %2, i64 noundef %3) local_unnamed_addr #0 {
  %5 = alloca i64, align 8
  store i64 %3, ptr %5, align 8, !tbaa !6
  %6 = load i64, ptr @rb_cSockOpt, align 8, !tbaa !6
  %7 = tail call i64 @rb_obj_alloc(i64 noundef %6) #6
  %8 = call i64 @rb_string_value(ptr noundef nonnull %5) #6
  %9 = sext i32 %0 to i64
  %10 = shl nsw i64 %9, 1
  %11 = or disjoint i64 %10, 1
  %12 = sext i32 %1 to i64
  %13 = shl nsw i64 %12, 1
  %14 = or disjoint i64 %13, 1
  %15 = sext i32 %2 to i64
  %16 = shl nsw i64 %15, 1
  %17 = or disjoint i64 %16, 1
  %18 = load i64, ptr %5, align 8, !tbaa !6
  %19 = call i64 @sockopt_initialize(i64 noundef %7, i64 noundef %11, i64 noundef %14, i64 noundef %17, i64 noundef %18)
  ret i64 %7
}